; Function Attrs: mustprogress nounwind uwtable
define hidden noundef zeroext i1 @_ZN10JavaThread25resize_all_jvmci_countersEi(i32 noundef %0) local_unnamed_addr #0 align 2 {
  %2 = alloca %class.VM_JVMCIResizeCounters, align 8
  %3 = getelementptr inbounds i8, ptr %2, i64 8
  store ptr null, ptr %3, align 8
  store ptr getelementptr inbounds inrange(-16, 80) (i8, ptr @_ZTV22VM_JVMCIResizeCounters, i64 16), ptr %2, align 8
  %4 = getelementptr inbounds i8, ptr %2, i64 16
  store i32 %0, ptr %4, align 8
  %5 = getelementptr inbounds i8, ptr %2, i64 20
  store i8 0, ptr %5, align 4
  call void @_ZN8VMThread7executeEP12VM_Operation(ptr noundef nonnull %2) #21
  %6 = load i8, ptr %5, align 4
  %7 = trunc i8 %6 to i1
  %8 = xor i1 %7, true
  ret i1 %8
}